target datalayout = "e-m:e-p270:32:32-p271:32:32-p272:64:64-i64:64-i128:128-f80:128-n8:16:32:64-S128"
target triple = "x86_64-pc-linux-gnu"

%struct._ftype_t = type { i32, i32, ptr, ptr, ptr, ptr, ptr, ptr, ptr, ptr, ptr, ptr, ptr, ptr, ptr, %union.anon, %union.anon.0, ptr, ptr, ptr, ptr, ptr, ptr, ptr, ptr, ptr, ptr, ptr, ptr, ptr, ptr, ptr }
%union.anon = type { ptr }
%union.anon.0 = type { ptr }

@type_list = hidden global [48 x ptr] zeroinitializer, align 16

; Function Attrs: nounwind null_pointer_is_valid sspstrong uwtable
define zeroext i1 @ftype_can_val_to_sinteger(i32 noundef %0) #2 {
  %2 = alloca i32, align 4
  %3 = alloca ptr, align 8
  store i32 %0, ptr %2, align 4
  call void @llvm.lifetime.start.p0(i64 8, ptr %3) #9
  br label %4

4:                                                ; preds = %1
  br label %5

5:                                                ; preds = %4
  br label %6

6:                                                ; preds = %5
  %7 = load i32, ptr %2, align 4
  %8 = zext i32 %7 to i64
  %9 = getelementptr [48 x ptr], ptr @type_list, i64 0, i64 %8
  %10 = load ptr, ptr %9, align 8
  store ptr %10, ptr %3, align 8
  %11 = load ptr, ptr %3, align 8
  %12 = getelementptr inbounds nuw %struct._ftype_t, ptr %11, i32 0, i32 13
  %13 = load ptr, ptr %12, align 8
  %14 = icmp ne ptr %13, null
  %15 = select i1 %14, i32 1, i32 0
  %16 = icmp ne i32 %15, 0
  call void @llvm.lifetime.end.p0(i64 8, ptr %3) #9
  ret i1 %16
}